target datalayout = "e-m:e-p270:32:32-p271:32:32-p272:64:64-i64:64-i128:128-f80:128-n8:16:32:64-S128"
target triple = "x86_64-unknown-linux-gnu"

%class.rewriter_core = type { ptr, ptr, i8, i8, %class.ptr_vector, ptr, %class.svector.1, %class.ref_vector, %class.ptr_vector, ptr, %class.ref_vector.5, %class.obj_hashtable, ptr, i32, %class.svector.10 }
%class.svector.1 = type { %class.vector.2 }
%class.vector.2 = type { ptr }
%class.ref_vector = type { %class.ref_vector_core }
%class.ref_vector_core = type { %class.ref_manager_wrapper, %class.ptr_vector.3 }
%class.ref_manager_wrapper = type { ptr }
%class.ptr_vector.3 = type { %class.vector.4 }
%class.vector.4 = type { ptr }
%class.ptr_vector = type { %class.vector.0 }
%class.vector.0 = type { ptr }
%class.ref_vector.5 = type { %class.ref_vector_core.6 }
%class.ref_vector_core.6 = type { %class.ref_manager_wrapper.7, %class.ptr_vector.8 }
%class.ref_manager_wrapper.7 = type { ptr }
%class.ptr_vector.8 = type { %class.vector.9 }
%class.vector.9 = type { ptr }
%class.obj_hashtable = type { %class.core_hashtable.base, [4 x i8] }
%class.core_hashtable.base = type <{ ptr, i32, i32, i32 }>
%class.svector.10 = type { %class.vector.11 }
%class.vector.11 = type { ptr }
%"struct.rewriter_core::scope" = type <{ ptr, i32, [4 x i8] }>

; Function Attrs: mustprogress nounwind uwtable
define linkonce_odr hidden noundef nonnull align 8 dereferenceable(12) ptr @_ZN6vectorIN13rewriter_core5scopeELb0EjEixEj(ptr noundef nonnull align 8 dereferenceable(8) %this, i32 noundef %idx) #5 comdat align 2 {
entry:
  %this.addr = alloca ptr, align 8
  %idx.addr = alloca i32, align 4
  store ptr %this, ptr %this.addr, align 8
  store i32 %idx, ptr %idx.addr, align 4
  %this1 = load ptr, ptr %this.addr, align 8
  %m_data = getelementptr inbounds %class.vector.11, ptr %this1, i32 0, i32 0
  %0 = load ptr, ptr %m_data, align 8
  %1 = load i32, ptr %idx.addr, align 4
  %idxprom = zext i32 %1 to i64
  %arrayidx = getelementptr inbounds %"struct.rewriter_core::scope", ptr %0, i64 %idxprom
  ret ptr %arrayidx
}

; Function Attrs: mustprogress nounwind uwtable
define linkonce_odr hidden noundef nonnull align 8 dereferenceable(8) ptr @_ZN6vectorIP9act_cacheLb0EjEixEj(ptr noundef nonnull align 8 dereferenceable(8) %this, i32 noundef %idx) #5 comdat align 2 {
entry:
  %this.addr = alloca ptr, align 8
  %idx.addr = alloca i32, align 4
  store ptr %this, ptr %this.addr, align 8
  store i32 %idx, ptr %idx.addr, align 4
  %this1 = load ptr, ptr %this.addr, align 8
  %m_data = getelementptr inbounds %class.vector.0, ptr %this1, i32 0, i32 0
  %0 = load ptr, ptr %m_data, align 8
  %1 = load i32, ptr %idx.addr, align 4
  %idxprom = zext i32 %1 to i64
  %arrayidx = getelementptr inbounds ptr, ptr %0, i64 %idxprom
  ret ptr %arrayidx
}

; Function Attrs: mustprogress nounwind uwtable
define linkonce_odr hidden noundef i32 @_ZNK6vectorIN13rewriter_core5scopeELb0EjE4sizeEv(ptr noundef nonnull align 8 dereferenceable(8) %this) #5 comdat align 2 {
entry:
  %retval = alloca i32, align 4
  %this.addr = alloca ptr, align 8
  store ptr %this, ptr %this.addr, align 8
  %this1 = load ptr, ptr %this.addr, align 8
  %m_data = getelementptr inbounds %class.vector.11, ptr %this1, i32 0, i32 0
  %0 = load ptr, ptr %m_data, align 8
  %cmp = icmp eq ptr %0, null
  br i1 %cmp, label %if.then, label %if.end

if.then:                                          ; preds = %entry
  store i32 0, ptr %retval, align 4
  br label %return

if.end:                                           ; preds = %entry
  %m_data2 = getelementptr inbounds %class.vector.11, ptr %this1, i32 0, i32 0
  %1 = load ptr, ptr %m_data2, align 8
  %arrayidx = getelementptr inbounds i32, ptr %1, i64 -1
  %2 = load i32, ptr %arrayidx, align 4
  store i32 %2, ptr %retval, align 4
  br label %return

return:                                           ; preds = %if.end, %if.then
  %3 = load i32, ptr %retval, align 4
  ret i32 %3
}

; Function Attrs: mustprogress nounwind uwtable
define linkonce_odr hidden void @_ZN6vectorIN13rewriter_core5scopeELb0EjE8pop_backEv(ptr noundef nonnull align 8 dereferenceable(8) %this) #5 comdat align 2 {
entry:
  %this.addr = alloca ptr, align 8
  store ptr %this, ptr %this.addr, align 8
  %this1 = load ptr, ptr %this.addr, align 8
  %m_data = getelementptr inbounds %class.vector.11, ptr %this1, i32 0, i32 0
  %0 = load ptr, ptr %m_data, align 8
  %arrayidx = getelementptr inbounds i32, ptr %0, i64 -1
  %1 = load i32, ptr %arrayidx, align 4
  %dec = add i32 %1, -1
  store i32 %dec, ptr %arrayidx, align 4
  ret void
}

; Function Attrs: mustprogress uwtable
define linkonce_odr hidden noundef nonnull align 8 dereferenceable(12) ptr @_ZN6vectorIN13rewriter_core5scopeELb0EjE4backEv(ptr noundef nonnull align 8 dereferenceable(8) %this) #4 comdat align 2 {
entry:
  %this.addr = alloca ptr, align 8
  store ptr %this, ptr %this.addr, align 8
  %this1 = load ptr, ptr %this.addr, align 8
  %call = call noundef i32 @_ZNK6vectorIN13rewriter_core5scopeELb0EjE4sizeEv(ptr noundef nonnull align 8 dereferenceable(8) %this1)
  %sub = sub i32 %call, 1
  %call2 = call noundef nonnull align 8 dereferenceable(12) ptr @_ZN6vectorIN13rewriter_core5scopeELb0EjEixEj(ptr noundef nonnull align 8 dereferenceable(8) %this1, i32 noundef %sub)
  ret ptr %call2
}

; Function Attrs: mustprogress uwtable
define hidden void @_ZN13rewriter_core9end_scopeEv(ptr noundef nonnull align 8 dereferenceable(144) %this) #4 align 2 {
entry:
  %this.addr = alloca ptr, align 8
  %s = alloca ptr, align 8
  %new_lvl = alloca i32, align 4
  store ptr %this, ptr %this.addr, align 8
  %this1 = load ptr, ptr %this.addr, align 8
  %m_cache = getelementptr inbounds %class.rewriter_core, ptr %this1, i32 0, i32 5
  %0 = load ptr, ptr %m_cache, align 8
  call void @_ZN9act_cache5resetEv(ptr noundef nonnull align 8 dereferenceable(92) %0)
  %m_proof_gen = getelementptr inbounds %class.rewriter_core, ptr %this1, i32 0, i32 2
  %1 = load i8, ptr %m_proof_gen, align 8
  %tobool = trunc i8 %1 to i1
  br i1 %tobool, label %if.then, label %if.end

if.then:                                          ; preds = %entry
  %m_cache_pr = getelementptr inbounds %class.rewriter_core, ptr %this1, i32 0, i32 9
  %2 = load ptr, ptr %m_cache_pr, align 8
  call void @_ZN9act_cache5resetEv(ptr noundef nonnull align 8 dereferenceable(92) %2)
  br label %if.end

if.end:                                           ; preds = %if.then, %entry
  %m_scopes = getelementptr inbounds %class.rewriter_core, ptr %this1, i32 0, i32 14
  %call = call noundef nonnull align 8 dereferenceable(12) ptr @_ZN6vectorIN13rewriter_core5scopeELb0EjE4backEv(ptr noundef nonnull align 8 dereferenceable(8) %m_scopes)
  store ptr %call, ptr %s, align 8
  %3 = load ptr, ptr %s, align 8
  %m_old_root = getelementptr inbounds %"struct.rewriter_core::scope", ptr %3, i32 0, i32 0
  %4 = load ptr, ptr %m_old_root, align 8
  %m_root = getelementptr inbounds %class.rewriter_core, ptr %this1, i32 0, i32 12
  store ptr %4, ptr %m_root, align 8
  %5 = load ptr, ptr %s, align 8
  %m_old_num_qvars = getelementptr inbounds %"struct.rewriter_core::scope", ptr %5, i32 0, i32 1
  %6 = load i32, ptr %m_old_num_qvars, align 8
  %m_num_qvars = getelementptr inbounds %class.rewriter_core, ptr %this1, i32 0, i32 13
  store i32 %6, ptr %m_num_qvars, align 8
  %m_scopes2 = getelementptr inbounds %class.rewriter_core, ptr %this1, i32 0, i32 14
  call void @_ZN6vectorIN13rewriter_core5scopeELb0EjE8pop_backEv(ptr noundef nonnull align 8 dereferenceable(8) %m_scopes2)
  %m_scopes3 = getelementptr inbounds %class.rewriter_core, ptr %this1, i32 0, i32 14
  %call4 = call noundef i32 @_ZNK6vectorIN13rewriter_core5scopeELb0EjE4sizeEv(ptr noundef nonnull align 8 dereferenceable(8) %m_scopes3)
  store i32 %call4, ptr %new_lvl, align 4
  %m_cache_stack = getelementptr inbounds %class.rewriter_core, ptr %this1, i32 0, i32 4
  %7 = load i32, ptr %new_lvl, align 4
  %call5 = call noundef nonnull align 8 dereferenceable(8) ptr @_ZN6vectorIP9act_cacheLb0EjEixEj(ptr noundef nonnull align 8 dereferenceable(8) %m_cache_stack, i32 noundef %7)
  %8 = load ptr, ptr %call5, align 8
  %m_cache6 = getelementptr inbounds %class.rewriter_core, ptr %this1, i32 0, i32 5
  store ptr %8, ptr %m_cache6, align 8
  %m_proof_gen7 = getelementptr inbounds %class.rewriter_core, ptr %this1, i32 0, i32 2
  %9 = load i8, ptr %m_proof_gen7, align 8
  %tobool8 = trunc i8 %9 to i1
  br i1 %tobool8, label %if.then9, label %if.end12

if.then9:                                         ; preds = %if.end
  %m_cache_pr_stack = getelementptr inbounds %class.rewriter_core, ptr %this1, i32 0, i32 8
  %10 = load i32, ptr %new_lvl, align 4
  %call10 = call noundef nonnull align 8 dereferenceable(8) ptr @_ZN6vectorIP9act_cacheLb0EjEixEj(ptr noundef nonnull align 8 dereferenceable(8) %m_cache_pr_stack, i32 noundef %10)
  %11 = load ptr, ptr %call10, align 8
  %m_cache_pr11 = getelementptr inbounds %class.rewriter_core, ptr %this1, i32 0, i32 9
  store ptr %11, ptr %m_cache_pr11, align 8
  br label %if.end12

if.end12:                                         ; preds = %if.then9, %if.end
  ret void
}