; Function Attrs: mustprogress uwtable
define hidden void @_ZN13rewriter_core9end_scopeEv(ptr nocapture noundef nonnull align 8 dereferenceable(144) %this) local_unnamed_addr #3 align 2 {
entry:
  %m_cache = getelementptr inbounds i8, ptr %this, i64 32
  %0 = load ptr, ptr %m_cache, align 8
  tail call void @_ZN9act_cache5resetEv(ptr noundef nonnull align 8 dereferenceable(92) %0)
  %m_proof_gen = getelementptr inbounds i8, ptr %this, i64 16
  %1 = load i8, ptr %m_proof_gen, align 8
  %2 = and i8 %1, 1
  %tobool.not = icmp eq i8 %2, 0
  br i1 %tobool.not, label %if.end, label %if.then

if.then:                                          ; preds = %entry
  %m_cache_pr = getelementptr inbounds i8, ptr %this, i64 72
  %3 = load ptr, ptr %m_cache_pr, align 8
  tail call void @_ZN9act_cache5resetEv(ptr noundef nonnull align 8 dereferenceable(92) %3)
  br label %if.end

if.end:                                           ; preds = %if.then, %entry
  %m_scopes = getelementptr inbounds i8, ptr %this, i64 136
  %4 = load ptr, ptr %m_scopes, align 8
  %cmp.i.i = icmp eq ptr %4, null
  br i1 %cmp.i.i, label %_ZN6vectorIN13rewriter_core5scopeELb0EjE4backEv.exit, label %if.end.i.i

if.end.i.i:                                       ; preds = %if.end
  %arrayidx.i.i = getelementptr inbounds i8, ptr %4, i64 -4
  %5 = load i32, ptr %arrayidx.i.i, align 4
  %6 = add i32 %5, -1
  %7 = zext i32 %6 to i64
  br label %_ZN6vectorIN13rewriter_core5scopeELb0EjE4backEv.exit

_ZN6vectorIN13rewriter_core5scopeELb0EjE4backEv.exit: ; preds = %if.end, %if.end.i.i
  %retval.0.i.i = phi i64 [ %7, %if.end.i.i ], [ 4294967295, %if.end ]
  %arrayidx.i1.i = getelementptr inbounds %"struct.rewriter_core::scope", ptr %4, i64 %retval.0.i.i
  %8 = load ptr, ptr %arrayidx.i1.i, align 8
  %m_root = getelementptr inbounds i8, ptr %this, i64 120
  store ptr %8, ptr %m_root, align 8
  %m_old_num_qvars = getelementptr inbounds i8, ptr %arrayidx.i1.i, i64 8
  %9 = load i32, ptr %m_old_num_qvars, align 8
  %m_num_qvars = getelementptr inbounds i8, ptr %this, i64 128
  store i32 %9, ptr %m_num_qvars, align 8
  %arrayidx.i = getelementptr inbounds i8, ptr %4, i64 -4
  %10 = load i32, ptr %arrayidx.i, align 4
  %dec.i = add i32 %10, -1
  store i32 %dec.i, ptr %arrayidx.i, align 4
  %11 = load ptr, ptr %m_scopes, align 8
  %cmp.i = icmp eq ptr %11, null
  br i1 %cmp.i, label %_ZNK6vectorIN13rewriter_core5scopeELb0EjE4sizeEv.exit, label %if.end.i

if.end.i:                                         ; preds = %_ZN6vectorIN13rewriter_core5scopeELb0EjE4backEv.exit
  %arrayidx.i3 = getelementptr inbounds i8, ptr %11, i64 -4
  %12 = load i32, ptr %arrayidx.i3, align 4
  %13 = zext i32 %12 to i64
  br label %_ZNK6vectorIN13rewriter_core5scopeELb0EjE4sizeEv.exit

_ZNK6vectorIN13rewriter_core5scopeELb0EjE4sizeEv.exit: ; preds = %_ZN6vectorIN13rewriter_core5scopeELb0EjE4backEv.exit, %if.end.i
  %retval.0.i = phi i64 [ %13, %if.end.i ], [ 0, %_ZN6vectorIN13rewriter_core5scopeELb0EjE4backEv.exit ]
  %m_cache_stack = getelementptr inbounds i8, ptr %this, i64 24
  %14 = load ptr, ptr %m_cache_stack, align 8
  %arrayidx.i4 = getelementptr inbounds ptr, ptr %14, i64 %retval.0.i
  %15 = load ptr, ptr %arrayidx.i4, align 8
  store ptr %15, ptr %m_cache, align 8
  %16 = load i8, ptr %m_proof_gen, align 8
  %17 = and i8 %16, 1
  %tobool8.not = icmp eq i8 %17, 0
  br i1 %tobool8.not, label %if.end12, label %if.then9

if.then9:                                         ; preds = %_ZNK6vectorIN13rewriter_core5scopeELb0EjE4sizeEv.exit
  %m_cache_pr_stack = getelementptr inbounds i8, ptr %this, i64 64
  %18 = load ptr, ptr %m_cache_pr_stack, align 8
  %arrayidx.i6 = getelementptr inbounds ptr, ptr %18, i64 %retval.0.i
  %19 = load ptr, ptr %arrayidx.i6, align 8
  %m_cache_pr11 = getelementptr inbounds i8, ptr %this, i64 72
  store ptr %19, ptr %m_cache_pr11, align 8
  br label %if.end12

if.end12:                                         ; preds = %if.then9, %_ZNK6vectorIN13rewriter_core5scopeELb0EjE4sizeEv.exit
  ret void
}